target datalayout = "e-m:e-p270:32:32-p271:32:32-p272:64:64-i64:64-i128:128-f80:128-n8:16:32:64-S128"
target triple = "x86_64-pc-linux-gnu"

@_ZN6icu_7726UFormattedDateIntervalImplC1Ev = unnamed_addr alias void (ptr), ptr @_ZN6icu_7726UFormattedDateIntervalImplC2Ev

; Function Attrs: mustprogress nounwind uwtable
define linkonce_odr noundef ptr @_ZN6icu_7713IcuCApiHelperI22UFormattedDateIntervalNS_26UFormattedDateIntervalImplELi1178880342EE10exportForCEv(ptr noundef nonnull align 4 dereferenceable(4) %0) #0 comdat align 2 {
  %2 = alloca ptr, align 8
  store ptr %0, ptr %2, align 8, !tbaa !31
  %3 = load ptr, ptr %2, align 8
  %4 = getelementptr inbounds i8, ptr %3, i64 -16
  ret ptr %4
}

; Function Attrs: inlinehint mustprogress nounwind uwtable
define internal noundef signext i8 @_ZL9U_FAILURE10UErrorCode(i32 noundef %0) #2 {
  %2 = alloca i32, align 4
  store i32 %0, ptr %2, align 4, !tbaa !15
  %3 = load i32, ptr %2, align 4, !tbaa !15
  %4 = icmp sgt i32 %3, 0
  %5 = zext i1 %4 to i8
  ret i8 %5
}

; Function Attrs: mustprogress uwtable
define ptr @udtitvfmt_openResult_77(ptr noundef %0) #1 personality ptr @__gxx_personality_v0 {
  %2 = alloca ptr, align 8
  %3 = alloca ptr, align 8
  %4 = alloca ptr, align 8
  %5 = alloca ptr, align 8
  %6 = alloca i1, align 1
  %7 = alloca ptr, align 8
  %8 = alloca i32, align 4
  %9 = alloca i32, align 4
  store ptr %0, ptr %3, align 8, !tbaa !22
  %10 = load ptr, ptr %3, align 8, !tbaa !22
  %11 = load i32, ptr %10, align 4, !tbaa !15
  %12 = call noundef signext i8 @_ZL9U_FAILURE10UErrorCode(i32 noundef %11)
  %13 = icmp ne i8 %12, 0
  br i1 %13, label %14, label %15

14:                                               ; preds = %1
  store ptr null, ptr %2, align 8
  br label %43

15:                                               ; preds = %1
  call void @llvm.lifetime.start.p0(i64 8, ptr %4) #11
  %16 = call noundef ptr @_ZN6icu_777UMemorynwEm(i64 noundef 48) #11
  %17 = icmp eq ptr %16, null
  store i1 false, ptr %6, align 1
  br i1 %17, label %20, label %18

18:                                               ; preds = %15
  store ptr %16, ptr %5, align 8
  store i1 true, ptr %6, align 1
  invoke void @_ZN6icu_7726UFormattedDateIntervalImplC1Ev(ptr noundef nonnull align 8 dereferenceable(48) %16)
          to label %19 unwind label %26

19:                                               ; preds = %18
  br label %20

20:                                               ; preds = %19, %15
  %21 = phi ptr [ %16, %19 ], [ null, %15 ]
  store ptr %21, ptr %4, align 8, !tbaa !23
  %22 = load ptr, ptr %4, align 8, !tbaa !23
  %23 = icmp eq ptr %22, null
  br i1 %23, label %24, label %34

24:                                               ; preds = %20
  %25 = load ptr, ptr %3, align 8, !tbaa !22
  store i32 7, ptr %25, align 4, !tbaa !15
  store ptr null, ptr %2, align 8
  store i32 1, ptr %9, align 4
  br label %42

26:                                               ; preds = %18
  %27 = landingpad { ptr, i32 }
          cleanup
  %28 = extractvalue { ptr, i32 } %27, 0
  store ptr %28, ptr %7, align 8
  %29 = extractvalue { ptr, i32 } %27, 1
  store i32 %29, ptr %8, align 4
  %30 = load i1, ptr %6, align 1
  br i1 %30, label %31, label %33

31:                                               ; preds = %26
  %32 = load ptr, ptr %5, align 8
  call void @_ZN6icu_777UMemorydlEPv(ptr noundef %32) #11
  br label %33

33:                                               ; preds = %31, %26
  call void @llvm.lifetime.end.p0(i64 8, ptr %4) #11
  br label %45

34:                                               ; preds = %20
  %35 = load ptr, ptr %4, align 8, !tbaa !23
  %36 = icmp eq ptr %35, null
  br i1 %36, label %39, label %37

37:                                               ; preds = %34
  %38 = getelementptr inbounds i8, ptr %35, i64 16
  br label %39

39:                                               ; preds = %37, %34
  %40 = phi ptr [ %38, %37 ], [ null, %34 ]
  %41 = call noundef ptr @_ZN6icu_7713IcuCApiHelperI22UFormattedDateIntervalNS_26UFormattedDateIntervalImplELi1178880342EE10exportForCEv(ptr noundef nonnull align 4 dereferenceable(4) %40)
  store ptr %41, ptr %2, align 8
  store i32 1, ptr %9, align 4
  br label %42

42:                                               ; preds = %39, %24
  call void @llvm.lifetime.end.p0(i64 8, ptr %4) #11
  br label %43

43:                                               ; preds = %42, %14
  %44 = load ptr, ptr %2, align 8
  ret ptr %44

45:                                               ; preds = %33
  %46 = load ptr, ptr %7, align 8
  %47 = load i32, ptr %8, align 4
  %48 = insertvalue { ptr, i32 } poison, ptr %46, 0
  %49 = insertvalue { ptr, i32 } %48, i32 %47, 1
  resume { ptr, i32 } %49
}